target datalayout = "e-m:e-p270:32:32-p271:32:32-p272:64:64-i64:64-i128:128-f80:128-n8:16:32:64-S128"
target triple = "x86_64-pc-linux-gnu"

%struct._typeobject = type { %struct.PyVarObject, ptr, i64, i64, ptr, i64, ptr, ptr, ptr, ptr, ptr, ptr, ptr, ptr, ptr, ptr, ptr, ptr, ptr, i64, ptr, ptr, ptr, ptr, i64, ptr, ptr, ptr, ptr, ptr, ptr, ptr, ptr, ptr, i64, ptr, ptr, ptr, ptr, ptr, ptr, ptr, ptr, ptr, ptr, ptr, i32, ptr, ptr, i8, i16 }
%struct.PyVarObject = type { %struct._object, i64 }
%struct._object = type { %union.anon, ptr }
%union.anon = type { i64 }
%struct.managed_static_type_state = type { ptr, i32, i32, i32, ptr, ptr, ptr }
%struct._ts = type { ptr, ptr, ptr, i64, %struct.anon.0, i32, i32, i32, i32, i32, i32, i32, i32, ptr, ptr, ptr, ptr, ptr, ptr, ptr, ptr, i32, ptr, i64, i64, ptr, i64, i32, ptr, ptr, ptr, i64, i64, ptr, ptr, ptr, %struct._err_stackitem, ptr, i64, ptr, ptr }
%struct.anon.0 = type { i32 }
%struct._err_stackitem = type { ptr, ptr }
%struct._PyWeakReference = type { %struct._object, ptr, ptr, i64, ptr, ptr, ptr }

@_Py_tss_tstate = external thread_local global ptr, align 8

; Function Attrs: inlinehint nounwind uwtable
define internal ptr @_PyThreadState_GET() #1 {
  %1 = call align 8 ptr @llvm.threadlocal.address.p0(ptr align 8 @_Py_tss_tstate)
  %2 = load ptr, ptr %1, align 8, !tbaa !50
  ret ptr %2
}

; Function Attrs: inlinehint nounwind uwtable
define internal i32 @PyType_HasFeature(ptr noundef %0, i64 noundef %1) #1 {
  %3 = alloca ptr, align 8
  %4 = alloca i64, align 8
  %5 = alloca i64, align 8
  store ptr %0, ptr %3, align 8, !tbaa !19
  store i64 %1, ptr %4, align 8, !tbaa !9
  call void @llvm.lifetime.start.p0(i64 8, ptr %5) #6
  %6 = load ptr, ptr %3, align 8, !tbaa !19
  %7 = getelementptr inbounds nuw %struct._typeobject, ptr %6, i32 0, i32 19
  %8 = load i64, ptr %7, align 8, !tbaa !30
  store i64 %8, ptr %5, align 8, !tbaa !9
  %9 = load i64, ptr %5, align 8, !tbaa !9
  %10 = load i64, ptr %4, align 8, !tbaa !9
  %11 = and i64 %9, %10
  %12 = icmp ne i64 %11, 0
  %13 = zext i1 %12 to i32
  call void @llvm.lifetime.end.p0(i64 8, ptr %5) #6
  ret i32 %13
}

; Function Attrs: inlinehint nounwind uwtable
define internal ptr @_PyStaticType_GET_WEAKREFS_LISTPTR(ptr noundef %0) #1 {
  %2 = alloca ptr, align 8
  store ptr %0, ptr %2, align 8, !tbaa !33
  %3 = load ptr, ptr %2, align 8, !tbaa !33
  %4 = getelementptr inbounds nuw %struct.managed_static_type_state, ptr %3, i32 0, i32 6
  ret ptr %4
}

; Function Attrs: inlinehint nounwind uwtable
define internal ptr @_PyInterpreterState_GET() #1 {
  %1 = alloca ptr, align 8
  call void @llvm.lifetime.start.p0(i64 8, ptr %1) #6
  %2 = call ptr @_PyThreadState_GET()
  store ptr %2, ptr %1, align 8, !tbaa !50
  %3 = load ptr, ptr %1, align 8, !tbaa !50
  %4 = getelementptr inbounds nuw %struct._ts, ptr %3, i32 0, i32 2
  %5 = load ptr, ptr %4, align 8, !tbaa !52
  call void @llvm.lifetime.end.p0(i64 8, ptr %1) #6
  ret ptr %5
}

; Function Attrs: inlinehint nounwind uwtable
define internal i32 @PyType_Check(ptr noundef %0) #1 {
  %2 = alloca ptr, align 8
  store ptr %0, ptr %2, align 8, !tbaa !4
  %3 = load ptr, ptr %2, align 8, !tbaa !4
  %4 = call ptr @_Py_TYPE(ptr noundef %3)
  %5 = call i32 @PyType_HasFeature(ptr noundef %4, i64 noundef 2147483648)
  ret i32 %5
}

; Function Attrs: inlinehint nounwind uwtable
define internal ptr @_PyObject_GET_WEAKREFS_LISTPTR(ptr noundef %0) #1 {
  %2 = alloca ptr, align 8
  %3 = alloca ptr, align 8
  %4 = alloca ptr, align 8
  %5 = alloca ptr, align 8
  %6 = alloca i64, align 8
  store ptr %0, ptr %3, align 8, !tbaa !4
  %7 = load ptr, ptr %3, align 8, !tbaa !4
  %8 = call i32 @PyType_Check(ptr noundef %7)
  %9 = icmp ne i32 %8, 0
  br i1 %9, label %10, label %23

10:                                               ; preds = %1
  %11 = load ptr, ptr %3, align 8, !tbaa !4
  %12 = getelementptr inbounds nuw %struct._typeobject, ptr %11, i32 0, i32 19
  %13 = load i64, ptr %12, align 8, !tbaa !30
  %14 = and i64 %13, 2
  %15 = icmp ne i64 %14, 0
  br i1 %15, label %16, label %23

16:                                               ; preds = %10
  call void @llvm.lifetime.start.p0(i64 8, ptr %4) #6
  %17 = call ptr @_PyInterpreterState_GET()
  store ptr %17, ptr %4, align 8, !tbaa !31
  call void @llvm.lifetime.start.p0(i64 8, ptr %5) #6
  %18 = load ptr, ptr %4, align 8, !tbaa !31
  %19 = load ptr, ptr %3, align 8, !tbaa !4
  %20 = call ptr @_PyStaticType_GetState(ptr noundef %18, ptr noundef %19)
  store ptr %20, ptr %5, align 8, !tbaa !33
  %21 = load ptr, ptr %5, align 8, !tbaa !33
  %22 = call ptr @_PyStaticType_GET_WEAKREFS_LISTPTR(ptr noundef %21)
  store ptr %22, ptr %2, align 8
  call void @llvm.lifetime.end.p0(i64 8, ptr %5) #6
  call void @llvm.lifetime.end.p0(i64 8, ptr %4) #6
  br label %31

23:                                               ; preds = %10, %1
  call void @llvm.lifetime.start.p0(i64 8, ptr %6) #6
  %24 = load ptr, ptr %3, align 8, !tbaa !4
  %25 = call ptr @_Py_TYPE(ptr noundef %24)
  %26 = getelementptr inbounds nuw %struct._typeobject, ptr %25, i32 0, i32 24
  %27 = load i64, ptr %26, align 8, !tbaa !20
  store i64 %27, ptr %6, align 8, !tbaa !9
  %28 = load ptr, ptr %3, align 8, !tbaa !4
  %29 = load i64, ptr %6, align 8, !tbaa !9
  %30 = getelementptr i8, ptr %28, i64 %29
  store ptr %30, ptr %2, align 8
  call void @llvm.lifetime.end.p0(i64 8, ptr %6) #6
  br label %31

31:                                               ; preds = %23, %16
  %32 = load ptr, ptr %2, align 8
  ret ptr %32
}

; Function Attrs: inlinehint nounwind uwtable
define internal i32 @_PyType_SUPPORTS_WEAKREFS(ptr noundef %0) #1 {
  %2 = alloca ptr, align 8
  store ptr %0, ptr %2, align 8, !tbaa !19
  %3 = load ptr, ptr %2, align 8, !tbaa !19
  %4 = getelementptr inbounds nuw %struct._typeobject, ptr %3, i32 0, i32 24
  %5 = load i64, ptr %4, align 8, !tbaa !20
  %6 = icmp ne i64 %5, 0
  %7 = zext i1 %6 to i32
  ret i32 %7
}

; Function Attrs: inlinehint nounwind uwtable
define internal ptr @_Py_TYPE(ptr noundef %0) #1 {
  %2 = alloca ptr, align 8
  store ptr %0, ptr %2, align 8, !tbaa !4
  %3 = load ptr, ptr %2, align 8, !tbaa !4
  %4 = getelementptr inbounds nuw %struct._object, ptr %3, i32 0, i32 1
  %5 = load ptr, ptr %4, align 8, !tbaa !29
  ret ptr %5
}

; Function Attrs: nounwind uwtable
define hidden i64 @_PyWeakref_GetWeakrefCount(ptr noundef %0) #0 {
  %2 = alloca i64, align 8
  %3 = alloca ptr, align 8
  %4 = alloca i64, align 8
  %5 = alloca ptr, align 8
  store ptr %0, ptr %3, align 8, !tbaa !4
  %6 = load ptr, ptr %3, align 8, !tbaa !4
  %7 = call ptr @_Py_TYPE(ptr noundef %6)
  %8 = call i32 @_PyType_SUPPORTS_WEAKREFS(ptr noundef %7)
  %9 = icmp ne i32 %8, 0
  br i1 %9, label %11, label %10

10:                                               ; preds = %1
  store i64 0, ptr %2, align 8
  br label %26

11:                                               ; preds = %1
  call void @llvm.lifetime.start.p0(i64 8, ptr %4) #6
  store i64 0, ptr %4, align 8, !tbaa !9
  call void @llvm.lifetime.start.p0(i64 8, ptr %5) #6
  %12 = load ptr, ptr %3, align 8, !tbaa !4
  %13 = call ptr @_PyObject_GET_WEAKREFS_LISTPTR(ptr noundef %12)
  %14 = load ptr, ptr %13, align 8, !tbaa !11
  store ptr %14, ptr %5, align 8, !tbaa !11
  br label %15

15:                                               ; preds = %18, %11
  %16 = load ptr, ptr %5, align 8, !tbaa !11
  %17 = icmp ne ptr %16, null
  br i1 %17, label %18, label %24

18:                                               ; preds = %15
  %19 = load i64, ptr %4, align 8, !tbaa !9
  %20 = add i64 %19, 1
  store i64 %20, ptr %4, align 8, !tbaa !9
  %21 = load ptr, ptr %5, align 8, !tbaa !11
  %22 = getelementptr inbounds nuw %struct._PyWeakReference, ptr %21, i32 0, i32 5
  %23 = load ptr, ptr %22, align 8, !tbaa !13
  store ptr %23, ptr %5, align 8, !tbaa !11
  br label %15, !llvm.loop !17

24:                                               ; preds = %15
  %25 = load i64, ptr %4, align 8, !tbaa !9
  store i64 %25, ptr %2, align 8
  call void @llvm.lifetime.end.p0(i64 8, ptr %5) #6
  call void @llvm.lifetime.end.p0(i64 8, ptr %4) #6
  br label %26

26:                                               ; preds = %24, %10
  %27 = load i64, ptr %2, align 8
  ret i64 %27
}