; Function Attrs: nounwind uwtable
define hidden i64 @_PyWeakref_GetWeakrefCount(ptr noundef %0) local_unnamed_addr #0 {
  %2 = getelementptr i8, ptr %0, i64 8
  %.val = load ptr, ptr %2, align 8, !tbaa !4
  %3 = getelementptr i8, ptr %.val, i64 208
  %.val9 = load i64, ptr %3, align 8, !tbaa !10
  %.not10 = icmp eq i64 %.val9, 0
  br i1 %.not10, label %.loopexit, label %4

4:                                                ; preds = %1
  %5 = getelementptr i8, ptr %.val, i64 168
  %.val9.val.i = load i64, ptr %5, align 8, !tbaa !21
  %6 = and i64 %.val9.val.i, 2147483648
  %.not10.i = icmp eq i64 %6, 0
  br i1 %.not10.i, label %18, label %7

7:                                                ; preds = %4
  %8 = getelementptr inbounds nuw i8, ptr %0, i64 168
  %9 = load i64, ptr %8, align 8, !tbaa !21
  %10 = and i64 %9, 2
  %.not8.i = icmp eq i64 %10, 0
  br i1 %.not8.i, label %18, label %11

11:                                               ; preds = %7
  %12 = tail call align 8 ptr @llvm.threadlocal.address.p0(ptr align 8 @_Py_tss_tstate)
  %13 = load ptr, ptr %12, align 8, !tbaa !22
  %14 = getelementptr inbounds nuw i8, ptr %13, i64 16
  %15 = load ptr, ptr %14, align 8, !tbaa !24
  %16 = tail call ptr @_PyStaticType_GetState(ptr noundef %15, ptr noundef nonnull %0) #6
  %17 = getelementptr inbounds nuw i8, ptr %16, i64 40
  br label %_PyObject_GET_WEAKREFS_LISTPTR.exit

18:                                               ; preds = %7, %4
  %19 = getelementptr i8, ptr %0, i64 %.val9
  br label %_PyObject_GET_WEAKREFS_LISTPTR.exit

_PyObject_GET_WEAKREFS_LISTPTR.exit:              ; preds = %11, %18
  %.0.i = phi ptr [ %17, %11 ], [ %19, %18 ]
  %.011 = load ptr, ptr %.0.i, align 8, !tbaa !33
  %.not812 = icmp eq ptr %.011, null
  br i1 %.not812, label %.loopexit, label %.lr.ph

.lr.ph:                                           ; preds = %_PyObject_GET_WEAKREFS_LISTPTR.exit, %.lr.ph
  %.014 = phi ptr [ %.0, %.lr.ph ], [ %.011, %_PyObject_GET_WEAKREFS_LISTPTR.exit ]
  %.0613 = phi i64 [ %20, %.lr.ph ], [ 0, %_PyObject_GET_WEAKREFS_LISTPTR.exit ]
  %20 = add i64 %.0613, 1
  %21 = getelementptr inbounds nuw i8, ptr %.014, i64 48
  %.0 = load ptr, ptr %21, align 8, !tbaa !33
  %.not8 = icmp eq ptr %.0, null
  br i1 %.not8, label %.loopexit, label %.lr.ph, !llvm.loop !35

.loopexit:                                        ; preds = %.lr.ph, %_PyObject_GET_WEAKREFS_LISTPTR.exit, %1
  %.07 = phi i64 [ 0, %1 ], [ 0, %_PyObject_GET_WEAKREFS_LISTPTR.exit ], [ %20, %.lr.ph ]
  ret i64 %.07
}